target datalayout = "e-m:e-p270:32:32-p271:32:32-p272:64:64-i64:64-i128:128-f80:128-n8:16:32:64-S128"
target triple = "x86_64-pc-linux-gnu"

%struct.AVCodecContext = type { ptr, i32, i32, ptr, i32, i32, ptr, ptr, ptr, i64, i32, i32, ptr, i32, %struct.AVRational, %struct.AVRational, %struct.AVRational, i32, i32, i32, i32, i32, %struct.AVRational, i32, i32, i32, i32, i32, i32, i32, i32, i32, i32, i32, ptr, ptr, i32, float, float, float, float, float, float, float, float, float, i32, i32, i32, i32, i32, i32, i32, i32, i32, i32, i32, i32, ptr, ptr, ptr, i32, i32, i32, i32, i32, i32, i32, i32, i32, i32, %struct.AVChannelLayout, i32, i32, i32, i32, i32, i32, i32, i32, ptr, i32, i32, i32, float, float, i32, i32, i32, i32, i32, ptr, i64, i64, float, float, i32, i32, ptr, ptr, i32, i32, i32, i32, i32, ptr, ptr, ptr, ptr, i32, i32, [8 x i64], i32, i32, i32, i32, i32, i32, i32, ptr, ptr, i32, i32, i32, i32, i32, i32, i32, i32, i32, i32, ptr, ptr, i32, i32, ptr, ptr, ptr, ptr, i32, i32, i64, i32, i32, i64, ptr, i64, ptr, i32, ptr, i32 }
%struct.AVRational = type { i32, i32 }
%struct.AVChannelLayout = type { i32, i32, %union.anon.0, ptr }
%union.anon.0 = type { i64 }
%struct.TsccContext = type { ptr, ptr, i32, i32, ptr, %struct.GetByteContext, i32, %struct.FFZStream, [256 x i32] }
%struct.GetByteContext = type { ptr, ptr, ptr }
%struct.FFZStream = type { %struct.z_stream_s, i32 }
%struct.z_stream_s = type { ptr, i32, i64, ptr, i32, i64, ptr, ptr, ptr, ptr, ptr, i32, i64, i64 }
%struct.AVPacket = type { ptr, i64, i64, ptr, i32, i32, i32, ptr, i32, i64, i64, ptr, ptr, %struct.AVRational }
%struct.AVFrame = type { [8 x ptr], [8 x i32], ptr, i32, i32, i32, i32, i32, %struct.AVRational, i64, i64, %struct.AVRational, i32, ptr, i32, i32, [8 x ptr], ptr, i32, ptr, i32, i32, i32, i32, i32, i32, i32, i64, ptr, i32, ptr, ptr, i64, i64, i64, i64, ptr, %struct.AVChannelLayout, i64 }

@.str.4 = private unnamed_addr constant [25 x i8] c"Inflate reset error: %d\0A\00", align 1
@.str.5 = private unnamed_addr constant [19 x i8] c"Inflate error: %d\0A\00", align 1
@.str.6 = private unnamed_addr constant [30 x i8] c"Assertion %s failed at %s:%d\0A\00", align 1
@.str.7 = private unnamed_addr constant [14 x i8] c"buf_size >= 0\00", align 1
@.str.8 = private unnamed_addr constant [24 x i8] c"libavcodec/bytestream.h\00", align 1

; Function Attrs: alwaysinline nounwind uwtable
define internal void @bytestream2_init(ptr noundef %0, ptr noundef %1, i32 noundef %2) #4 {
  %4 = alloca ptr, align 8
  %5 = alloca ptr, align 8
  %6 = alloca i32, align 4
  store ptr %0, ptr %4, align 8, !tbaa !62
  store ptr %1, ptr %5, align 8, !tbaa !53
  store i32 %2, ptr %6, align 4, !tbaa !55
  br label %7

7:                                                ; preds = %3
  %8 = load i32, ptr %6, align 4, !tbaa !55
  %9 = icmp sge i32 %8, 0
  br i1 %9, label %11, label %10

10:                                               ; preds = %7
  call void (ptr, i32, ptr, ...) @av_log(ptr noundef null, i32 noundef 0, ptr noundef @.str.6, ptr noundef @.str.7, ptr noundef @.str.8, i32 noundef 141)
  call void @abort() #8
  unreachable

11:                                               ; preds = %7
  br label %12

12:                                               ; preds = %11
  %13 = load ptr, ptr %5, align 8, !tbaa !53
  %14 = load ptr, ptr %4, align 8, !tbaa !62
  %15 = getelementptr inbounds nuw %struct.GetByteContext, ptr %14, i32 0, i32 0
  store ptr %13, ptr %15, align 8, !tbaa !64
  %16 = load ptr, ptr %5, align 8, !tbaa !53
  %17 = load ptr, ptr %4, align 8, !tbaa !62
  %18 = getelementptr inbounds nuw %struct.GetByteContext, ptr %17, i32 0, i32 2
  store ptr %16, ptr %18, align 8, !tbaa !65
  %19 = load ptr, ptr %5, align 8, !tbaa !53
  %20 = load i32, ptr %6, align 4, !tbaa !55
  %21 = sext i32 %20 to i64
  %22 = getelementptr inbounds i8, ptr %19, i64 %21
  %23 = load ptr, ptr %4, align 8, !tbaa !62
  %24 = getelementptr inbounds nuw %struct.GetByteContext, ptr %23, i32 0, i32 1
  store ptr %22, ptr %24, align 8, !tbaa !66
  ret void
}

; Function Attrs: nounwind uwtable
define internal i32 @decode_frame(ptr noundef %0, ptr noundef %1, ptr noundef %2, ptr noundef %3) #1 {
  %5 = alloca i32, align 4
  %6 = alloca ptr, align 8
  %7 = alloca ptr, align 8
  %8 = alloca ptr, align 8
  %9 = alloca ptr, align 8
  %10 = alloca ptr, align 8
  %11 = alloca i32, align 4
  %12 = alloca ptr, align 8
  %13 = alloca ptr, align 8
  %14 = alloca ptr, align 8
  %15 = alloca i32, align 4
  %16 = alloca i32, align 4
  %17 = alloca i32, align 4
  store ptr %0, ptr %6, align 8, !tbaa !4
  store ptr %1, ptr %7, align 8, !tbaa !47
  store ptr %2, ptr %8, align 8, !tbaa !48
  store ptr %3, ptr %9, align 8, !tbaa !49
  call void @llvm.lifetime.start.p0(i64 8, ptr %10) #7
  %18 = load ptr, ptr %9, align 8, !tbaa !49
  %19 = getelementptr inbounds nuw %struct.AVPacket, ptr %18, i32 0, i32 3
  %20 = load ptr, ptr %19, align 8, !tbaa !51
  store ptr %20, ptr %10, align 8, !tbaa !53
  call void @llvm.lifetime.start.p0(i64 4, ptr %11) #7
  %21 = load ptr, ptr %9, align 8, !tbaa !49
  %22 = getelementptr inbounds nuw %struct.AVPacket, ptr %21, i32 0, i32 4
  %23 = load i32, ptr %22, align 8, !tbaa !54
  store i32 %23, ptr %11, align 4, !tbaa !55
  call void @llvm.lifetime.start.p0(i64 8, ptr %12) #7
  %24 = load ptr, ptr %6, align 8, !tbaa !4
  %25 = getelementptr inbounds nuw %struct.AVCodecContext, ptr %24, i32 0, i32 6
  %26 = load ptr, ptr %25, align 8, !tbaa !9
  store ptr %26, ptr %12, align 8, !tbaa !29
  call void @llvm.lifetime.start.p0(i64 8, ptr %13) #7
  %27 = load ptr, ptr %12, align 8, !tbaa !29
  %28 = getelementptr inbounds nuw %struct.TsccContext, ptr %27, i32 0, i32 7
  %29 = getelementptr inbounds nuw %struct.FFZStream, ptr %28, i32 0, i32 0
  store ptr %29, ptr %13, align 8, !tbaa !56
  call void @llvm.lifetime.start.p0(i64 8, ptr %14) #7
  %30 = load ptr, ptr %12, align 8, !tbaa !29
  %31 = getelementptr inbounds nuw %struct.TsccContext, ptr %30, i32 0, i32 1
  %32 = load ptr, ptr %31, align 8, !tbaa !46
  store ptr %32, ptr %14, align 8, !tbaa !47
  call void @llvm.lifetime.start.p0(i64 4, ptr %15) #7
  call void @llvm.lifetime.start.p0(i64 4, ptr %16) #7
  store i32 0, ptr %16, align 4, !tbaa !55
  %33 = load ptr, ptr %12, align 8, !tbaa !29
  %34 = getelementptr inbounds nuw %struct.TsccContext, ptr %33, i32 0, i32 0
  %35 = load ptr, ptr %34, align 8, !tbaa !31
  %36 = getelementptr inbounds nuw %struct.AVCodecContext, ptr %35, i32 0, i32 23
  %37 = load i32, ptr %36, align 8, !tbaa !41
  %38 = icmp eq i32 %37, 11
  br i1 %38, label %39, label %46

39:                                               ; preds = %4
  %40 = load ptr, ptr %12, align 8, !tbaa !29
  %41 = getelementptr inbounds nuw %struct.TsccContext, ptr %40, i32 0, i32 8
  %42 = getelementptr inbounds [256 x i32], ptr %41, i64 0, i64 0
  %43 = load ptr, ptr %9, align 8, !tbaa !49
  %44 = load ptr, ptr %6, align 8, !tbaa !4
  %45 = call i32 @ff_copy_palette(ptr noundef %42, ptr noundef %43, ptr noundef %44)
  store i32 %45, ptr %16, align 4, !tbaa !55
  br label %46

46:                                               ; preds = %39, %4
  %47 = load ptr, ptr %13, align 8, !tbaa !56
  %48 = call i32 @inflateReset(ptr noundef %47)
  store i32 %48, ptr %15, align 4, !tbaa !55
  %49 = load i32, ptr %15, align 4, !tbaa !55
  %50 = icmp ne i32 %49, 0
  br i1 %50, label %51, label %54

51:                                               ; preds = %46
  %52 = load ptr, ptr %6, align 8, !tbaa !4
  %53 = load i32, ptr %15, align 4, !tbaa !55
  call void (ptr, i32, ptr, ...) @av_log(ptr noundef %52, i32 noundef 16, ptr noundef @.str.4, i32 noundef %53)
  store i32 -1313558101, ptr %5, align 4
  store i32 1, ptr %17, align 4
  br label %148

54:                                               ; preds = %46
  %55 = load ptr, ptr %10, align 8, !tbaa !53
  %56 = load ptr, ptr %13, align 8, !tbaa !56
  %57 = getelementptr inbounds nuw %struct.z_stream_s, ptr %56, i32 0, i32 0
  store ptr %55, ptr %57, align 8, !tbaa !58
  %58 = load i32, ptr %11, align 4, !tbaa !55
  %59 = load ptr, ptr %13, align 8, !tbaa !56
  %60 = getelementptr inbounds nuw %struct.z_stream_s, ptr %59, i32 0, i32 1
  store i32 %58, ptr %60, align 8, !tbaa !59
  %61 = load ptr, ptr %12, align 8, !tbaa !29
  %62 = getelementptr inbounds nuw %struct.TsccContext, ptr %61, i32 0, i32 4
  %63 = load ptr, ptr %62, align 8, !tbaa !45
  %64 = load ptr, ptr %13, align 8, !tbaa !56
  %65 = getelementptr inbounds nuw %struct.z_stream_s, ptr %64, i32 0, i32 3
  store ptr %63, ptr %65, align 8, !tbaa !60
  %66 = load ptr, ptr %12, align 8, !tbaa !29
  %67 = getelementptr inbounds nuw %struct.TsccContext, ptr %66, i32 0, i32 3
  %68 = load i32, ptr %67, align 4, !tbaa !44
  %69 = load ptr, ptr %13, align 8, !tbaa !56
  %70 = getelementptr inbounds nuw %struct.z_stream_s, ptr %69, i32 0, i32 4
  store i32 %68, ptr %70, align 8, !tbaa !61
  %71 = load ptr, ptr %13, align 8, !tbaa !56
  %72 = call i32 @inflate(ptr noundef %71, i32 noundef 4)
  store i32 %72, ptr %15, align 4, !tbaa !55
  %73 = load i32, ptr %15, align 4, !tbaa !55
  %74 = icmp eq i32 %73, -3
  br i1 %74, label %75, label %80

75:                                               ; preds = %54
  %76 = load i32, ptr %16, align 4, !tbaa !55
  %77 = icmp ne i32 %76, 0
  br i1 %77, label %80, label %78

78:                                               ; preds = %75
  %79 = load i32, ptr %11, align 4, !tbaa !55
  store i32 %79, ptr %5, align 4
  store i32 1, ptr %17, align 4
  br label %148

80:                                               ; preds = %75, %54
  %81 = load i32, ptr %15, align 4, !tbaa !55
  %82 = icmp ne i32 %81, 0
  br i1 %82, label %83, label %92

83:                                               ; preds = %80
  %84 = load i32, ptr %15, align 4, !tbaa !55
  %85 = icmp ne i32 %84, 1
  br i1 %85, label %86, label %92

86:                                               ; preds = %83
  %87 = load i32, ptr %15, align 4, !tbaa !55
  %88 = icmp ne i32 %87, -3
  br i1 %88, label %89, label %92

89:                                               ; preds = %86
  %90 = load ptr, ptr %6, align 8, !tbaa !4
  %91 = load i32, ptr %15, align 4, !tbaa !55
  call void (ptr, i32, ptr, ...) @av_log(ptr noundef %90, i32 noundef 16, ptr noundef @.str.5, i32 noundef %91)
  store i32 -1313558101, ptr %5, align 4
  store i32 1, ptr %17, align 4
  br label %148

92:                                               ; preds = %86, %83, %80
  %93 = load ptr, ptr %6, align 8, !tbaa !4
  %94 = load ptr, ptr %14, align 8, !tbaa !47
  %95 = call i32 @ff_reget_buffer(ptr noundef %93, ptr noundef %94, i32 noundef 0)
  store i32 %95, ptr %15, align 4, !tbaa !55
  %96 = icmp slt i32 %95, 0
  br i1 %96, label %97, label %99

97:                                               ; preds = %92
  %98 = load i32, ptr %15, align 4, !tbaa !55
  store i32 %98, ptr %5, align 4
  store i32 1, ptr %17, align 4
  br label %148

99:                                               ; preds = %92
  %100 = load i32, ptr %15, align 4, !tbaa !55
  %101 = icmp ne i32 %100, -3
  br i1 %101, label %102, label %123

102:                                              ; preds = %99
  %103 = load ptr, ptr %12, align 8, !tbaa !29
  %104 = getelementptr inbounds nuw %struct.TsccContext, ptr %103, i32 0, i32 5
  %105 = load ptr, ptr %12, align 8, !tbaa !29
  %106 = getelementptr inbounds nuw %struct.TsccContext, ptr %105, i32 0, i32 4
  %107 = load ptr, ptr %106, align 8, !tbaa !45
  %108 = load ptr, ptr %12, align 8, !tbaa !29
  %109 = getelementptr inbounds nuw %struct.TsccContext, ptr %108, i32 0, i32 3
  %110 = load i32, ptr %109, align 4, !tbaa !44
  %111 = load ptr, ptr %13, align 8, !tbaa !56
  %112 = getelementptr inbounds nuw %struct.z_stream_s, ptr %111, i32 0, i32 4
  %113 = load i32, ptr %112, align 8, !tbaa !61
  %114 = sub i32 %110, %113
  call void @bytestream2_init(ptr noundef %104, ptr noundef %107, i32 noundef %114)
  %115 = load ptr, ptr %6, align 8, !tbaa !4
  %116 = load ptr, ptr %14, align 8, !tbaa !47
  %117 = load ptr, ptr %12, align 8, !tbaa !29
  %118 = getelementptr inbounds nuw %struct.TsccContext, ptr %117, i32 0, i32 2
  %119 = load i32, ptr %118, align 8, !tbaa !42
  %120 = load ptr, ptr %12, align 8, !tbaa !29
  %121 = getelementptr inbounds nuw %struct.TsccContext, ptr %120, i32 0, i32 5
  %122 = call i32 @ff_msrle_decode(ptr noundef %115, ptr noundef %116, i32 noundef %119, ptr noundef %121)
  br label %123

123:                                              ; preds = %102, %99
  %124 = load ptr, ptr %12, align 8, !tbaa !29
  %125 = getelementptr inbounds nuw %struct.TsccContext, ptr %124, i32 0, i32 0
  %126 = load ptr, ptr %125, align 8, !tbaa !31
  %127 = getelementptr inbounds nuw %struct.AVCodecContext, ptr %126, i32 0, i32 23
  %128 = load i32, ptr %127, align 8, !tbaa !41
  %129 = icmp eq i32 %128, 11
  br i1 %129, label %130, label %138

130:                                              ; preds = %123
  %131 = load ptr, ptr %14, align 8, !tbaa !47
  %132 = getelementptr inbounds nuw %struct.AVFrame, ptr %131, i32 0, i32 0
  %133 = getelementptr inbounds [8 x ptr], ptr %132, i64 0, i64 1
  %134 = load ptr, ptr %133, align 8, !tbaa !53
  %135 = load ptr, ptr %12, align 8, !tbaa !29
  %136 = getelementptr inbounds nuw %struct.TsccContext, ptr %135, i32 0, i32 8
  %137 = getelementptr inbounds [256 x i32], ptr %136, i64 0, i64 0
  call void @llvm.memcpy.p0.p0.i64(ptr align 1 %134, ptr align 8 %137, i64 1024, i1 false)
  br label %138

138:                                              ; preds = %130, %123
  %139 = load ptr, ptr %7, align 8, !tbaa !47
  %140 = load ptr, ptr %14, align 8, !tbaa !47
  %141 = call i32 @av_frame_ref(ptr noundef %139, ptr noundef %140)
  store i32 %141, ptr %15, align 4, !tbaa !55
  %142 = icmp slt i32 %141, 0
  br i1 %142, label %143, label %145

143:                                              ; preds = %138
  %144 = load i32, ptr %15, align 4, !tbaa !55
  store i32 %144, ptr %5, align 4
  store i32 1, ptr %17, align 4
  br label %148

145:                                              ; preds = %138
  %146 = load ptr, ptr %8, align 8, !tbaa !48
  store i32 1, ptr %146, align 4, !tbaa !55
  %147 = load i32, ptr %11, align 4, !tbaa !55
  store i32 %147, ptr %5, align 4
  store i32 1, ptr %17, align 4
  br label %148

148:                                              ; preds = %145, %143, %97, %89, %78, %51
  call void @llvm.lifetime.end.p0(i64 4, ptr %16) #7
  call void @llvm.lifetime.end.p0(i64 4, ptr %15) #7
  call void @llvm.lifetime.end.p0(i64 8, ptr %14) #7
  call void @llvm.lifetime.end.p0(i64 8, ptr %13) #7
  call void @llvm.lifetime.end.p0(i64 8, ptr %12) #7
  call void @llvm.lifetime.end.p0(i64 4, ptr %11) #7
  call void @llvm.lifetime.end.p0(i64 8, ptr %10) #7
  %149 = load i32, ptr %5, align 4
  ret i32 %149
}