; Function Attrs: nounwind uwtable
define internal i32 @decode_frame(ptr noundef %0, ptr noundef %1, ptr noundef writeonly captures(none) %2, ptr noundef %3) #1 {
  %5 = getelementptr inbounds nuw i8, ptr %3, i64 24
  %6 = load ptr, ptr %5, align 8, !tbaa !44
  %7 = getelementptr inbounds nuw i8, ptr %3, i64 32
  %8 = load i32, ptr %7, align 8, !tbaa !46
  %9 = getelementptr inbounds nuw i8, ptr %0, i64 32
  %10 = load ptr, ptr %9, align 8, !tbaa !4
  %11 = getelementptr inbounds nuw i8, ptr %10, i64 64
  %12 = getelementptr inbounds nuw i8, ptr %10, i64 8
  %13 = load ptr, ptr %12, align 8, !tbaa !43
  %14 = load ptr, ptr %10, align 8, !tbaa !27
  %15 = getelementptr inbounds nuw i8, ptr %14, i64 136
  %16 = load i32, ptr %15, align 8, !tbaa !38
  %17 = icmp eq i32 %16, 11
  br i1 %17, label %18, label %22

18:                                               ; preds = %4
  %19 = getelementptr inbounds nuw i8, ptr %10, i64 184
  %20 = tail call i32 @ff_copy_palette(ptr noundef nonnull %19, ptr noundef nonnull %3, ptr noundef nonnull %0) #6
  %21 = icmp ne i32 %20, 0
  br label %22

22:                                               ; preds = %18, %4
  %.0 = phi i1 [ %21, %18 ], [ false, %4 ]
  %23 = tail call i32 @inflateReset(ptr noundef nonnull %11) #6
  %.not = icmp eq i32 %23, 0
  br i1 %.not, label %25, label %24

24:                                               ; preds = %22
  tail call void (ptr, i32, ptr, ...) @av_log(ptr noundef nonnull %0, i32 noundef 16, ptr noundef nonnull @.str.4, i32 noundef %23) #6
  br label %67

25:                                               ; preds = %22
  store ptr %6, ptr %11, align 8, !tbaa !47
  %26 = getelementptr inbounds nuw i8, ptr %10, i64 72
  store i32 %8, ptr %26, align 8, !tbaa !48
  %27 = getelementptr inbounds nuw i8, ptr %10, i64 24
  %28 = load ptr, ptr %27, align 8, !tbaa !42
  %29 = getelementptr inbounds nuw i8, ptr %10, i64 88
  store ptr %28, ptr %29, align 8, !tbaa !49
  %30 = getelementptr inbounds nuw i8, ptr %10, i64 20
  %31 = load i32, ptr %30, align 4, !tbaa !41
  %32 = getelementptr inbounds nuw i8, ptr %10, i64 96
  store i32 %31, ptr %32, align 8, !tbaa !50
  %33 = tail call i32 @inflate(ptr noundef nonnull %11, i32 noundef 4) #6
  %34 = icmp ne i32 %33, -3
  %or.cond = select i1 %34, i1 true, i1 %.0
  br i1 %or.cond, label %35, label %67

35:                                               ; preds = %25
  switch i32 %33, label %36 [
    i32 -3, label %37
    i32 1, label %37
    i32 0, label %37
  ]

36:                                               ; preds = %35
  tail call void (ptr, i32, ptr, ...) @av_log(ptr noundef nonnull %0, i32 noundef 16, ptr noundef nonnull @.str.5, i32 noundef %33) #6
  br label %67

37:                                               ; preds = %35, %35, %35
  %38 = tail call i32 @ff_reget_buffer(ptr noundef nonnull %0, ptr noundef %13, i32 noundef 0) #6
  %39 = icmp slt i32 %38, 0
  br i1 %39, label %67, label %40

40:                                               ; preds = %37
  %41 = load i32, ptr %30, align 4, !tbaa !41
  %42 = load i32, ptr %32, align 8, !tbaa !50
  %43 = sub i32 %41, %42
  %44 = icmp sgt i32 %43, -1
  br i1 %44, label %bytestream2_init.exit, label %45

45:                                               ; preds = %40
  tail call void (ptr, i32, ptr, ...) @av_log(ptr noundef null, i32 noundef 0, ptr noundef nonnull @.str.6, ptr noundef nonnull @.str.7, ptr noundef nonnull @.str.8, i32 noundef 141) #6
  tail call void @abort() #7
  unreachable

bytestream2_init.exit:                            ; preds = %40
  %46 = load ptr, ptr %27, align 8, !tbaa !42
  %47 = getelementptr inbounds nuw i8, ptr %10, i64 32
  store ptr %46, ptr %47, align 8, !tbaa !51
  %48 = getelementptr inbounds nuw i8, ptr %10, i64 48
  store ptr %46, ptr %48, align 8, !tbaa !52
  %49 = zext nneg i32 %43 to i64
  %50 = getelementptr inbounds nuw i8, ptr %46, i64 %49
  %51 = getelementptr inbounds nuw i8, ptr %10, i64 40
  store ptr %50, ptr %51, align 8, !tbaa !53
  %52 = getelementptr inbounds nuw i8, ptr %10, i64 16
  %53 = load i32, ptr %52, align 8, !tbaa !39
  %54 = tail call i32 @ff_msrle_decode(ptr noundef nonnull %0, ptr noundef %13, i32 noundef %53, ptr noundef nonnull %47) #6
  %55 = load ptr, ptr %10, align 8, !tbaa !27
  %56 = getelementptr inbounds nuw i8, ptr %55, i64 136
  %57 = load i32, ptr %56, align 8, !tbaa !38
  %58 = icmp eq i32 %57, 11
  br i1 %58, label %59, label %63

59:                                               ; preds = %bytestream2_init.exit
  %60 = getelementptr inbounds nuw i8, ptr %13, i64 8
  %61 = load ptr, ptr %60, align 8, !tbaa !54
  %62 = getelementptr inbounds nuw i8, ptr %10, i64 184
  tail call void @llvm.memcpy.p0.p0.i64(ptr noundef nonnull align 1 dereferenceable(1024) %61, ptr noundef nonnull align 8 dereferenceable(1024) %62, i64 1024, i1 false)
  br label %63

63:                                               ; preds = %59, %bytestream2_init.exit
  %64 = tail call i32 @av_frame_ref(ptr noundef %1, ptr noundef %13) #6
  %65 = icmp slt i32 %64, 0
  br i1 %65, label %67, label %66

66:                                               ; preds = %63
  store i32 1, ptr %2, align 4, !tbaa !55
  br label %67

67:                                               ; preds = %63, %37, %25, %66, %36, %24
  %.055 = phi i32 [ -1313558101, %24 ], [ -1313558101, %36 ], [ %8, %66 ], [ %8, %25 ], [ %38, %37 ], [ %64, %63 ]
  ret i32 %.055
}